target datalayout = "e-m:e-p270:32:32-p271:32:32-p272:64:64-i64:64-i128:128-f80:128-n8:16:32:64-S128"
target triple = "x86_64-pc-linux-gnu"

%"class.icu_77::GMTOffsetField" = type <{ ptr, ptr, i32, i8, [3 x i8] }>
%"class.icu_77::UnicodeString" = type { %"class.icu_77::Replaceable", %"union.icu_77::UnicodeString::StackBufferOrFields" }
%"class.icu_77::Replaceable" = type { %"class.icu_77::UObject" }
%"class.icu_77::UObject" = type { ptr }
%"union.icu_77::UnicodeString::StackBufferOrFields" = type { %struct.anon.0, [32 x i8] }
%struct.anon.0 = type { i16, i32, i32, ptr }
%struct.anon = type { i16, [27 x i16] }

@_ZN6icu_7714GMTOffsetFieldC1Ev = unnamed_addr alias void (ptr), ptr @_ZN6icu_7714GMTOffsetFieldC2Ev

; Function Attrs: inlinehint mustprogress nounwind uwtable
define linkonce_odr noundef i32 @_ZNK6icu_7713UnicodeString14getShortLengthEv(ptr noundef nonnull align 8 dereferenceable(64) %0) #2 comdat align 2 {
  %2 = alloca ptr, align 8
  store ptr %0, ptr %2, align 8, !tbaa !33
  %3 = load ptr, ptr %2, align 8
  %4 = getelementptr inbounds nuw %"class.icu_77::UnicodeString", ptr %3, i32 0, i32 1
  %5 = getelementptr inbounds nuw %struct.anon.0, ptr %4, i32 0, i32 0
  %6 = load i16, ptr %5, align 8, !tbaa !37
  %7 = sext i16 %6 to i32
  %8 = ashr i32 %7, 5
  ret i32 %8
}

; Function Attrs: inlinehint mustprogress nounwind uwtable
define linkonce_odr noundef signext i8 @_ZNK6icu_7713UnicodeString14hasShortLengthEv(ptr noundef nonnull align 8 dereferenceable(64) %0) #2 comdat align 2 {
  %2 = alloca ptr, align 8
  store ptr %0, ptr %2, align 8, !tbaa !33
  %3 = load ptr, ptr %2, align 8
  %4 = getelementptr inbounds nuw %"class.icu_77::UnicodeString", ptr %3, i32 0, i32 1
  %5 = getelementptr inbounds nuw %struct.anon.0, ptr %4, i32 0, i32 0
  %6 = load i16, ptr %5, align 8, !tbaa !37
  %7 = sext i16 %6 to i32
  %8 = icmp sge i32 %7, 0
  %9 = zext i1 %8 to i8
  ret i8 %9
}

; Function Attrs: inlinehint mustprogress nounwind uwtable
define linkonce_odr noundef ptr @_ZNK6icu_7713UnicodeString9getBufferEv(ptr noundef nonnull align 8 dereferenceable(64) %0) #2 comdat align 2 {
  %2 = alloca ptr, align 8
  %3 = alloca ptr, align 8
  store ptr %0, ptr %3, align 8, !tbaa !33
  %4 = load ptr, ptr %3, align 8
  %5 = getelementptr inbounds nuw %"class.icu_77::UnicodeString", ptr %4, i32 0, i32 1
  %6 = getelementptr inbounds nuw %struct.anon.0, ptr %5, i32 0, i32 0
  %7 = load i16, ptr %6, align 8, !tbaa !37
  %8 = sext i16 %7 to i32
  %9 = and i32 %8, 17
  %10 = icmp ne i32 %9, 0
  br i1 %10, label %11, label %12

11:                                               ; preds = %1
  store ptr null, ptr %2, align 8
  br label %27

12:                                               ; preds = %1
  %13 = getelementptr inbounds nuw %"class.icu_77::UnicodeString", ptr %4, i32 0, i32 1
  %14 = getelementptr inbounds nuw %struct.anon.0, ptr %13, i32 0, i32 0
  %15 = load i16, ptr %14, align 8, !tbaa !37
  %16 = sext i16 %15 to i32
  %17 = and i32 %16, 2
  %18 = icmp ne i32 %17, 0
  br i1 %18, label %19, label %23

19:                                               ; preds = %12
  %20 = getelementptr inbounds nuw %"class.icu_77::UnicodeString", ptr %4, i32 0, i32 1
  %21 = getelementptr inbounds nuw %struct.anon, ptr %20, i32 0, i32 1
  %22 = getelementptr inbounds [27 x i16], ptr %21, i64 0, i64 0
  store ptr %22, ptr %2, align 8
  br label %27

23:                                               ; preds = %12
  %24 = getelementptr inbounds nuw %"class.icu_77::UnicodeString", ptr %4, i32 0, i32 1
  %25 = getelementptr inbounds nuw %struct.anon.0, ptr %24, i32 0, i32 3
  %26 = load ptr, ptr %25, align 8, !tbaa !37
  store ptr %26, ptr %2, align 8
  br label %27

27:                                               ; preds = %23, %19, %11
  %28 = load ptr, ptr %2, align 8
  ret ptr %28
}

; Function Attrs: inlinehint mustprogress uwtable
define linkonce_odr noundef i32 @_ZNK6icu_7713UnicodeString6lengthEv(ptr noundef nonnull align 8 dereferenceable(64) %0) #3 comdat align 2 {
  %2 = alloca ptr, align 8
  store ptr %0, ptr %2, align 8, !tbaa !33
  %3 = load ptr, ptr %2, align 8
  %4 = call noundef signext i8 @_ZNK6icu_7713UnicodeString14hasShortLengthEv(ptr noundef nonnull align 8 dereferenceable(64) %3)
  %5 = icmp ne i8 %4, 0
  br i1 %5, label %6, label %8

6:                                                ; preds = %1
  %7 = call noundef i32 @_ZNK6icu_7713UnicodeString14getShortLengthEv(ptr noundef nonnull align 8 dereferenceable(64) %3)
  br label %12

8:                                                ; preds = %1
  %9 = getelementptr inbounds nuw %"class.icu_77::UnicodeString", ptr %3, i32 0, i32 1
  %10 = getelementptr inbounds nuw %struct.anon.0, ptr %9, i32 0, i32 1
  %11 = load i32, ptr %10, align 4, !tbaa !37
  br label %12

12:                                               ; preds = %8, %6
  %13 = phi i32 [ %7, %6 ], [ %11, %8 ]
  ret i32 %13
}

; Function Attrs: inlinehint mustprogress nounwind uwtable
define internal noundef signext i8 @_ZL9U_FAILURE10UErrorCode(i32 noundef %0) #2 {
  %2 = alloca i32, align 4
  store i32 %0, ptr %2, align 4, !tbaa !15
  %3 = load i32, ptr %2, align 4, !tbaa !15
  %4 = icmp sgt i32 %3, 0
  %5 = zext i1 %4 to i8
  ret i8 %5
}

; Function Attrs: mustprogress uwtable
define noundef ptr @_ZN6icu_7714GMTOffsetField10createTextERKNS_13UnicodeStringER10UErrorCode(ptr noundef nonnull align 8 dereferenceable(64) %0, ptr noundef nonnull align 4 dereferenceable(4) %1) #1 align 2 personality ptr @__gxx_personality_v0 {
  %3 = alloca ptr, align 8
  %4 = alloca ptr, align 8
  %5 = alloca ptr, align 8
  %6 = alloca ptr, align 8
  %7 = alloca ptr, align 8
  %8 = alloca i1, align 1
  %9 = alloca ptr, align 8
  %10 = alloca i32, align 4
  %11 = alloca i32, align 4
  %12 = alloca i32, align 4
  store ptr %0, ptr %4, align 8, !tbaa !33
  store ptr %1, ptr %5, align 8, !tbaa !22
  %13 = load ptr, ptr %5, align 8, !tbaa !22
  %14 = load i32, ptr %13, align 4, !tbaa !15
  %15 = call noundef signext i8 @_ZL9U_FAILURE10UErrorCode(i32 noundef %14)
  %16 = icmp ne i8 %15, 0
  br i1 %16, label %17, label %18

17:                                               ; preds = %2
  store ptr null, ptr %3, align 8
  br label %79

18:                                               ; preds = %2
  call void @llvm.lifetime.start.p0(i64 8, ptr %6) #15
  %19 = call noundef ptr @_ZN6icu_777UMemorynwEm(i64 noundef 24) #15
  %20 = icmp eq ptr %19, null
  store i1 false, ptr %8, align 1
  br i1 %20, label %23, label %21

21:                                               ; preds = %18
  store ptr %19, ptr %7, align 8
  store i1 true, ptr %8, align 1
  invoke void @_ZN6icu_7714GMTOffsetFieldC1Ev(ptr noundef nonnull align 8 dereferenceable(21) %19)
          to label %22 unwind label %29

22:                                               ; preds = %21
  br label %23

23:                                               ; preds = %22, %18
  %24 = phi ptr [ %19, %22 ], [ null, %18 ]
  store ptr %24, ptr %6, align 8, !tbaa !23
  %25 = load ptr, ptr %6, align 8, !tbaa !23
  %26 = icmp eq ptr %25, null
  br i1 %26, label %27, label %37

27:                                               ; preds = %23
  %28 = load ptr, ptr %5, align 8, !tbaa !22
  store i32 7, ptr %28, align 4, !tbaa !15
  store ptr null, ptr %3, align 8
  store i32 1, ptr %11, align 4
  br label %78

29:                                               ; preds = %21
  %30 = landingpad { ptr, i32 }
          cleanup
  %31 = extractvalue { ptr, i32 } %30, 0
  store ptr %31, ptr %9, align 8
  %32 = extractvalue { ptr, i32 } %30, 1
  store i32 %32, ptr %10, align 4
  %33 = load i1, ptr %8, align 1
  br i1 %33, label %34, label %36

34:                                               ; preds = %29
  %35 = load ptr, ptr %7, align 8
  call void @_ZN6icu_777UMemorydlEPv(ptr noundef %35) #15
  br label %36

36:                                               ; preds = %34, %29
  call void @llvm.lifetime.end.p0(i64 8, ptr %6) #15
  br label %81

37:                                               ; preds = %23
  call void @llvm.lifetime.start.p0(i64 4, ptr %12) #15
  %38 = load ptr, ptr %4, align 8, !tbaa !33
  %39 = call noundef i32 @_ZNK6icu_7713UnicodeString6lengthEv(ptr noundef nonnull align 8 dereferenceable(64) %38)
  store i32 %39, ptr %12, align 4, !tbaa !14
  %40 = load i32, ptr %12, align 4, !tbaa !14
  %41 = add nsw i32 %40, 1
  %42 = sext i32 %41 to i64
  %43 = mul i64 %42, 2
  %44 = call noalias ptr @uprv_malloc_77(i64 noundef %43) #16
  %45 = load ptr, ptr %6, align 8, !tbaa !23
  %46 = getelementptr inbounds nuw %"class.icu_77::GMTOffsetField", ptr %45, i32 0, i32 1
  store ptr %44, ptr %46, align 8, !tbaa !27
  %47 = load ptr, ptr %6, align 8, !tbaa !23
  %48 = getelementptr inbounds nuw %"class.icu_77::GMTOffsetField", ptr %47, i32 0, i32 1
  %49 = load ptr, ptr %48, align 8, !tbaa !27
  %50 = icmp eq ptr %49, null
  br i1 %50, label %51, label %60

51:                                               ; preds = %37
  %52 = load ptr, ptr %5, align 8, !tbaa !22
  store i32 7, ptr %52, align 4, !tbaa !15
  %53 = load ptr, ptr %6, align 8, !tbaa !23
  %54 = icmp eq ptr %53, null
  br i1 %54, label %59, label %55

55:                                               ; preds = %51
  %56 = load ptr, ptr %53, align 8, !tbaa !25
  %57 = getelementptr inbounds ptr, ptr %56, i64 1
  %58 = load ptr, ptr %57, align 8
  call void %58(ptr noundef nonnull align 8 dereferenceable(21) %53) #15
  br label %59

59:                                               ; preds = %55, %51
  store ptr null, ptr %3, align 8
  store i32 1, ptr %11, align 4
  br label %77

60:                                               ; preds = %37
  %61 = load ptr, ptr %6, align 8, !tbaa !23
  %62 = getelementptr inbounds nuw %"class.icu_77::GMTOffsetField", ptr %61, i32 0, i32 1
  %63 = load ptr, ptr %62, align 8, !tbaa !27
  %64 = load ptr, ptr %4, align 8, !tbaa !33
  %65 = call noundef ptr @_ZNK6icu_7713UnicodeString9getBufferEv(ptr noundef nonnull align 8 dereferenceable(64) %64)
  %66 = load i32, ptr %12, align 4, !tbaa !14
  %67 = call ptr @u_strncpy_77(ptr noundef %63, ptr noundef %65, i32 noundef %66)
  %68 = load ptr, ptr %6, align 8, !tbaa !23
  %69 = getelementptr inbounds nuw %"class.icu_77::GMTOffsetField", ptr %68, i32 0, i32 1
  %70 = load ptr, ptr %69, align 8, !tbaa !27
  %71 = load i32, ptr %12, align 4, !tbaa !14
  %72 = sext i32 %71 to i64
  %73 = getelementptr inbounds i16, ptr %70, i64 %72
  store i16 0, ptr %73, align 2, !tbaa !35
  %74 = load ptr, ptr %6, align 8, !tbaa !23
  %75 = getelementptr inbounds nuw %"class.icu_77::GMTOffsetField", ptr %74, i32 0, i32 2
  store i32 0, ptr %75, align 8, !tbaa !31
  %76 = load ptr, ptr %6, align 8, !tbaa !23
  store ptr %76, ptr %3, align 8
  store i32 1, ptr %11, align 4
  br label %77

77:                                               ; preds = %60, %59
  call void @llvm.lifetime.end.p0(i64 4, ptr %12) #15
  br label %78

78:                                               ; preds = %77, %27
  call void @llvm.lifetime.end.p0(i64 8, ptr %6) #15
  br label %79

79:                                               ; preds = %78, %17
  %80 = load ptr, ptr %3, align 8
  ret ptr %80

81:                                               ; preds = %36
  %82 = load ptr, ptr %9, align 8
  %83 = load i32, ptr %10, align 4
  %84 = insertvalue { ptr, i32 } poison, ptr %82, 0
  %85 = insertvalue { ptr, i32 } %84, i32 %83, 1
  resume { ptr, i32 } %85
}