; Function Attrs: mustprogress uwtable
define noundef ptr @_ZN6icu_7714GMTOffsetField10createTextERKNS_13UnicodeStringER10UErrorCode(ptr noundef nonnull align 8 dereferenceable(64) %0, ptr noundef nonnull align 4 captures(none) dereferenceable(4) %1) local_unnamed_addr #1 align 2 personality ptr @__gxx_personality_v0 {
  %3 = load i32, ptr %1, align 4, !tbaa !13
  %4 = icmp slt i32 %3, 1
  br i1 %4, label %5, label %46

5:                                                ; preds = %2
  %6 = tail call noundef ptr @_ZN6icu_777UMemorynwEm(i64 noundef 24) #22
  %7 = icmp eq ptr %6, null
  br i1 %7, label %9, label %8

8:                                                ; preds = %5
  invoke void @_ZN6icu_7714GMTOffsetFieldC1Ev(ptr noundef nonnull align 8 dereferenceable(21) %6)
          to label %12 unwind label %10

9:                                                ; preds = %5
  store i32 7, ptr %1, align 4, !tbaa !13
  br label %46

10:                                               ; preds = %8
  %11 = landingpad { ptr, i32 }
          cleanup
  tail call void @_ZN6icu_777UMemorydlEPv(ptr noundef nonnull %6) #22
  resume { ptr, i32 } %11

12:                                               ; preds = %8
  %13 = getelementptr inbounds nuw i8, ptr %0, i64 8
  %14 = load i16, ptr %13, align 8, !tbaa !23
  %15 = icmp slt i16 %14, 0
  %16 = ashr i16 %14, 5
  %17 = sext i16 %16 to i32
  %18 = getelementptr inbounds nuw i8, ptr %0, i64 12
  %19 = load i32, ptr %18, align 4
  %20 = select i1 %15, i32 %19, i32 %17
  %21 = add nsw i32 %20, 1
  %22 = sext i32 %21 to i64
  %23 = shl nsw i64 %22, 1
  %24 = tail call noalias ptr @uprv_malloc_77(i64 noundef %23) #23
  %25 = getelementptr inbounds nuw i8, ptr %6, i64 8
  store ptr %24, ptr %25, align 8, !tbaa !17
  %26 = icmp eq ptr %24, null
  br i1 %26, label %27, label %31

27:                                               ; preds = %12
  store i32 7, ptr %1, align 4, !tbaa !13
  %28 = load ptr, ptr %6, align 8, !tbaa !15
  %29 = getelementptr inbounds nuw i8, ptr %28, i64 8
  %30 = load ptr, ptr %29, align 8
  tail call void %30(ptr noundef nonnull align 8 dereferenceable(21) %6) #22
  br label %46

31:                                               ; preds = %12
  %32 = load i16, ptr %13, align 8, !tbaa !23
  %33 = and i16 %32, 17
  %.not.i = icmp eq i16 %33, 0
  br i1 %.not.i, label %34, label %_ZNK6icu_7713UnicodeString9getBufferEv.exit

34:                                               ; preds = %31
  %35 = and i16 %32, 2
  %.not2.i = icmp eq i16 %35, 0
  br i1 %.not2.i, label %38, label %36

36:                                               ; preds = %34
  %37 = getelementptr inbounds nuw i8, ptr %0, i64 10
  br label %_ZNK6icu_7713UnicodeString9getBufferEv.exit

38:                                               ; preds = %34
  %39 = getelementptr inbounds nuw i8, ptr %0, i64 24
  %40 = load ptr, ptr %39, align 8, !tbaa !23
  br label %_ZNK6icu_7713UnicodeString9getBufferEv.exit

_ZNK6icu_7713UnicodeString9getBufferEv.exit:      ; preds = %31, %36, %38
  %.0.i = phi ptr [ %37, %36 ], [ %40, %38 ], [ null, %31 ]
  %41 = tail call ptr @u_strncpy_77(ptr noundef nonnull %24, ptr noundef %.0.i, i32 noundef %20)
  %42 = load ptr, ptr %25, align 8, !tbaa !17
  %43 = sext i32 %20 to i64
  %44 = getelementptr inbounds i16, ptr %42, i64 %43
  store i16 0, ptr %44, align 2, !tbaa !24
  %45 = getelementptr inbounds nuw i8, ptr %6, i64 16
  store i32 0, ptr %45, align 8, !tbaa !21
  br label %46

46:                                               ; preds = %9, %_ZNK6icu_7713UnicodeString9getBufferEv.exit, %27, %2
  %.0 = phi ptr [ null, %2 ], [ null, %9 ], [ null, %27 ], [ %6, %_ZNK6icu_7713UnicodeString9getBufferEv.exit ]
  ret ptr %.0
}